ccopy_reg
_reconstructor
p0
(cgoogle.oauth2.credentials
Credentials
p1
c__builtin__
object
p2
Ntp3
Rp4
(dp5
S'_quota_project_id'
p6
NsS'_token_uri'
p7
Vhttps://oauth2.googleapis.com/token
p8
sS'_client_secret'
p9
VCZSyUe2jZw4_S2hhwgLECUgL
p10
sS'_default_scopes'
p11
NsS'_id_token'
p12
NsS'token'
p13
Vya29.a0AfH6SMA7Z9qTxykMABoPnFKxZ9YTaAeTX0WKWX932vXcg1Z0p4VSJ47GrttI67V2FON1HocOdkCAdy6-iPUICJVqrGFyyJheKMMgu-apmX8gNCmENmW8zzjV8V9PmmWe3lQkRTCIMeHU0W2K_CPdpKDZ1m9FYA
p14
sS'_refresh_token'
p15
V1//0eoujV1qHj8rCCgYIARAAGA4SNwF-L9IropSm99AdN_9WhG4Qhw8KIBDl610J_L203apvDY9XV-berLwRyxZf8VgZzf7VR5ZM-lE
p16
sS'_scopes'
p17
(lp18
S'https://www.googleapis.com/auth/drive'
p19
asS'_client_id'
p20
V1047383179368-t0tmmvlesjggoevjaqp9uhn6aele0ite.apps.googleusercontent.com
p21
sS'expiry'
p22
cdatetime
datetime
p23
(S'\x07\xe5\x06\x0c\n\x0e0\x08\x13b'
p24
tp25
Rp26
sS'_rapt_token'
p27
Nsb.